target datalayout = "e-m:e-p270:32:32-p271:32:32-p272:64:64-i64:64-i128:128-f80:128-n8:16:32:64-S128"
target triple = "x86_64-pc-linux-gnu"

; Function Attrs: nounwind uwtable
define i32 @X509_VERIFY_PARAM_set1_ip_asc(ptr noundef %0, ptr noundef %1) #0 {
  %3 = alloca i32, align 4
  %4 = alloca ptr, align 8
  %5 = alloca ptr, align 8
  %6 = alloca [16 x i8], align 16
  %7 = alloca i64, align 8
  %8 = alloca i32, align 4
  store ptr %0, ptr %4, align 8, !tbaa !3
  store ptr %1, ptr %5, align 8, !tbaa !25
  call void @llvm.lifetime.start.p0(i64 16, ptr %6) #6
  call void @llvm.lifetime.start.p0(i64 8, ptr %7) #6
  %9 = getelementptr inbounds [16 x i8], ptr %6, i64 0, i64 0
  %10 = load ptr, ptr %5, align 8, !tbaa !25
  %11 = call i32 @ossl_a2i_ipadd(ptr noundef %9, ptr noundef %10)
  %12 = sext i32 %11 to i64
  store i64 %12, ptr %7, align 8, !tbaa !27
  %13 = load i64, ptr %7, align 8, !tbaa !27
  %14 = icmp eq i64 %13, 0
  br i1 %14, label %15, label %16

15:                                               ; preds = %2
  store i32 0, ptr %3, align 4
  store i32 1, ptr %8, align 4
  br label %21

16:                                               ; preds = %2
  %17 = load ptr, ptr %4, align 8, !tbaa !3
  %18 = getelementptr inbounds [16 x i8], ptr %6, i64 0, i64 0
  %19 = load i64, ptr %7, align 8, !tbaa !27
  %20 = call i32 @X509_VERIFY_PARAM_set1_ip(ptr noundef %17, ptr noundef %18, i64 noundef %19)
  store i32 %20, ptr %3, align 4
  store i32 1, ptr %8, align 4
  br label %21

21:                                               ; preds = %16, %15
  call void @llvm.lifetime.end.p0(i64 8, ptr %7) #6
  call void @llvm.lifetime.end.p0(i64 16, ptr %6) #6
  %22 = load i32, ptr %3, align 4
  ret i32 %22
}