; Function Attrs: nounwind uwtable
define range(i32 0, 2) i32 @X509_VERIFY_PARAM_set1_ip_asc(ptr noundef captures(none) %0, ptr noundef %1) local_unnamed_addr #0 {
  %3 = alloca [16 x i8], align 16
  call void @llvm.lifetime.start.p0(i64 16, ptr nonnull %3) #9
  %4 = call i32 @ossl_a2i_ipadd(ptr noundef nonnull %3, ptr noundef %1) #9
  %5 = icmp eq i32 %4, 0
  br i1 %5, label %9, label %6

6:                                                ; preds = %2
  %7 = sext i32 %4 to i64
  %8 = call i32 @X509_VERIFY_PARAM_set1_ip(ptr noundef %0, ptr noundef nonnull %3, i64 noundef %7)
  br label %9

9:                                                ; preds = %2, %6
  %.0 = phi i32 [ %8, %6 ], [ 0, %2 ]
  call void @llvm.lifetime.end.p0(i64 16, ptr nonnull %3) #9
  ret i32 %.0
}